; Function Attrs: mustprogress uwtable
define dso_local void @_ZN20cmWorkerPoolInternal5AbortEv(ptr noundef nonnull align 8 dereferenceable(304) %0) local_unnamed_addr #0 align 2 personality ptr @__gxx_personality_v0 {
  %2 = alloca %"struct.std::_Deque_iterator", align 16
  %3 = getelementptr inbounds i8, ptr %0, i64 40
  %4 = tail call noundef i32 @pthread_mutex_lock(ptr noundef nonnull %3) #20
  %.not.i.i = icmp eq i32 %4, 0
  br i1 %.not.i.i, label %_ZNSt10lock_guardISt5mutexEC2ERS0_.exit, label %5

5:                                                ; preds = %1
  tail call void @_ZSt20__throw_system_errori(i32 noundef %4) #21
  unreachable

_ZNSt10lock_guardISt5mutexEC2ERS0_.exit:          ; preds = %1
  %6 = getelementptr inbounds i8, ptr %0, i64 81
  %7 = load i8, ptr %6, align 1
  %8 = and i8 %7, 1
  %.not = icmp eq i8 %8, 0
  br i1 %.not, label %9, label %20

9:                                                ; preds = %_ZNSt10lock_guardISt5mutexEC2ERS0_.exit
  store i8 1, ptr %6, align 1
  %10 = getelementptr inbounds i8, ptr %0, i64 96
  call void @llvm.lifetime.start.p0(i64 32, ptr nonnull %2)
  tail call void @llvm.experimental.noalias.scope.decl(metadata !81)
  %11 = getelementptr inbounds i8, ptr %0, i64 112
  %12 = load <2 x ptr>, ptr %11, align 8, !noalias !81
  store <2 x ptr> %12, ptr %2, align 16, !alias.scope !81
  %13 = getelementptr inbounds i8, ptr %2, i64 16
  %14 = getelementptr inbounds i8, ptr %0, i64 128
  %15 = load <2 x ptr>, ptr %14, align 8, !noalias !81
  store <2 x ptr> %15, ptr %13, align 16, !alias.scope !81
  invoke void @_ZNSt5dequeISt10unique_ptrIN12cmWorkerPool4JobTESt14default_deleteIS2_EESaIS5_EE15_M_erase_at_endESt15_Deque_iteratorIS5_RS5_PS5_E(ptr noundef nonnull align 8 dereferenceable(80) %10, ptr noundef nonnull %2)
          to label %_ZNSt5dequeISt10unique_ptrIN12cmWorkerPool4JobTESt14default_deleteIS2_EESaIS5_EE5clearEv.exit unwind label %16

16:                                               ; preds = %9
  %17 = landingpad { ptr, i32 }
          catch ptr null
  %18 = extractvalue { ptr, i32 } %17, 0
  call void @__clang_call_terminate(ptr %18) #19
  unreachable

_ZNSt5dequeISt10unique_ptrIN12cmWorkerPool4JobTESt14default_deleteIS2_EESaIS5_EE5clearEv.exit: ; preds = %9
  call void @llvm.lifetime.end.p0(i64 32, ptr nonnull %2)
  %19 = getelementptr inbounds i8, ptr %0, i64 176
  call void @_ZNSt18condition_variable10notify_allEv(ptr noundef nonnull align 8 dereferenceable(48) %19) #20
  br label %20

20:                                               ; preds = %_ZNSt5dequeISt10unique_ptrIN12cmWorkerPool4JobTESt14default_deleteIS2_EESaIS5_EE5clearEv.exit, %_ZNSt10lock_guardISt5mutexEC2ERS0_.exit
  %21 = call noundef i32 @pthread_mutex_unlock(ptr noundef nonnull %3) #20
  ret void
}